; Function Attrs: mustprogress null_pointer_is_valid sspstrong uwtable
define internal void @_ZL16addHeuristicItemPvS_(ptr noundef %0, ptr noundef %1) #4 personality ptr @__gxx_personality_v0 {
  %3 = alloca ptr, align 8
  %4 = alloca %class.QVariant, align 8
  %5 = tail call noalias noundef dereferenceable_or_null(104) ptr @_Znwm(i64 noundef 104) #26
  invoke void @_ZN17HeuristicTreeItemC2EP15heur_dtbl_entryP19EnabledProtocolItem(ptr noundef align 8 dereferenceable_or_null(104) %5, ptr noundef %0, ptr noundef %1)
          to label %6 unwind label %10

6:                                                ; preds = %2
  %7 = getelementptr inbounds nuw i8, ptr %1, i64 16
  call void @llvm.lifetime.start.p0(i64 32, ptr nonnull %4) #28
  call void @llvm.lifetime.start.p0(i64 8, ptr nonnull %3) #28, !noalias !35
  store ptr %5, ptr %3, align 8, !noalias !35
  call void @_ZN8QVariantC1E9QMetaTypePKv(ptr noundef nonnull align 8 dereferenceable_or_null(32) %4, ptr nonnull @_ZN9QtPrivate25QMetaTypeInterfaceWrapperIPvE8metaTypeE, ptr noundef nonnull align 8 dereferenceable(8) %3)
  call void @llvm.lifetime.end.p0(i64 8, ptr nonnull %3) #28, !noalias !35
  invoke void @_ZN9QtPrivate16QMovableArrayOpsI8QVariantE7emplaceIJS1_EEEvxDpOT_(ptr noundef nonnull align 8 dereferenceable_or_null(24) %7, i64 noundef 0, ptr noundef nonnull align 8 dereferenceable(32) %4)
          to label %_ZN19ModelHelperTreeItemI19EnabledProtocolItemE12prependChildEPS0_.exit unwind label %8

common.resume:                                    ; preds = %10, %8
  %common.resume.op = phi { ptr, i32 } [ %9, %8 ], [ %11, %10 ]
  resume { ptr, i32 } %common.resume.op

8:                                                ; preds = %6
  %9 = landingpad { ptr, i32 }
          cleanup
  call void @_ZN8QVariantD1Ev(ptr noundef nonnull align 8 dereferenceable_or_null(32) %4) #28
  call void @llvm.lifetime.end.p0(i64 32, ptr nonnull %4) #28
  br label %common.resume

_ZN19ModelHelperTreeItemI19EnabledProtocolItemE12prependChildEPS0_.exit: ; preds = %6
  call void @_ZN8QVariantD1Ev(ptr noundef nonnull align 8 dereferenceable_or_null(32) %4) #28
  call void @llvm.lifetime.end.p0(i64 32, ptr nonnull %4) #28
  ret void

10:                                               ; preds = %2
  %11 = landingpad { ptr, i32 }
          cleanup
  tail call void @_ZdlPvm(ptr noundef %5, i64 noundef 104) #27
  br label %common.resume
}